target datalayout = "e-m:e-p270:32:32-p271:32:32-p272:64:64-i64:64-i128:128-f80:128-n8:16:32:64-S128"
target triple = "x86_64-pc-linux-gnu"

%struct.expert_field = type { i32, i32 }

@hf_tds_all_headers = internal global i32 0, align 4
@hf_tds_all_headers_total_length = internal global i32 0, align 4
@hf_tds_all_headers_header_length = internal global i32 0, align 4
@hf_tds_all_headers_header_type = internal global i32 0, align 4
@hf_tds_all_headers_trans_descr = internal global i32 0, align 4
@hf_tds_all_headers_request_cnt = internal global i32 0, align 4
@ett_tds_all_headers = internal global i32 0, align 4
@ett_tds_all_headers_header = internal global i32 0, align 4
@ei_tds_all_headers_header_type = internal global %struct.expert_field zeroinitializer, align 4
@ei_tds_invalid_length = internal global %struct.expert_field zeroinitializer, align 4
@.str.1334 = private unnamed_addr constant [7 x i8] c"Header\00", align 1
@.str.1335 = private unnamed_addr constant [13 x i8] c"Empty header\00", align 1
@.str.1336 = private unnamed_addr constant [23 x i8] c"Length should equal 18\00", align 1
@.str.1337 = private unnamed_addr constant [68 x i8] c"Sum of headers' lengths (%d) differs from total headers length (%d)\00", align 1

; Function Attrs: null_pointer_is_valid sspstrong uwtable
define internal void @dissect_tds_all_headers(ptr noundef %0, ptr noundef %1, ptr noundef %2, ptr noundef %3) #0 {
  %5 = alloca ptr, align 8
  %6 = alloca ptr, align 8
  %7 = alloca ptr, align 8
  %8 = alloca ptr, align 8
  %9 = alloca ptr, align 8
  %10 = alloca ptr, align 8
  %11 = alloca ptr, align 8
  %12 = alloca i32, align 4
  %13 = alloca i32, align 4
  %14 = alloca i32, align 4
  %15 = alloca ptr, align 8
  %16 = alloca ptr, align 8
  %17 = alloca ptr, align 8
  %18 = alloca ptr, align 8
  %19 = alloca i32, align 4
  %20 = alloca i16, align 2
  store ptr %0, ptr %5, align 8
  store ptr %1, ptr %6, align 8
  store ptr %2, ptr %7, align 8
  store ptr %3, ptr %8, align 8
  call void @llvm.lifetime.start.p0(i64 8, ptr %9) #11
  store ptr null, ptr %9, align 8
  call void @llvm.lifetime.start.p0(i64 8, ptr %10) #11
  store ptr null, ptr %10, align 8
  call void @llvm.lifetime.start.p0(i64 8, ptr %11) #11
  store ptr null, ptr %11, align 8
  call void @llvm.lifetime.start.p0(i64 4, ptr %12) #11
  call void @llvm.lifetime.start.p0(i64 4, ptr %13) #11
  %21 = load ptr, ptr %5, align 8
  %22 = load ptr, ptr %6, align 8
  %23 = load i32, ptr %22, align 4
  %24 = call i32 @tvb_get_letohl(ptr noundef %21, i32 noundef %23)
  store i32 %24, ptr %12, align 4
  %25 = load i32, ptr %12, align 4
  %26 = icmp uge i32 %25, 256
  br i1 %26, label %27, label %28

27:                                               ; preds = %4
  store i32 1, ptr %14, align 4
  br label %145

28:                                               ; preds = %4
  %29 = load ptr, ptr %8, align 8
  %30 = load i32, ptr @hf_tds_all_headers, align 4
  %31 = load ptr, ptr %5, align 8
  %32 = load ptr, ptr %6, align 8
  %33 = load i32, ptr %32, align 4
  %34 = load i32, ptr %12, align 4
  %35 = call ptr @proto_tree_add_item(ptr noundef %29, i32 noundef %30, ptr noundef %31, i32 noundef %33, i32 noundef %34, i32 noundef 0)
  store ptr %35, ptr %9, align 8
  %36 = load ptr, ptr %9, align 8
  %37 = load i32, ptr @ett_tds_all_headers, align 4
  %38 = call ptr @proto_item_add_subtree(ptr noundef %36, i32 noundef %37)
  store ptr %38, ptr %11, align 8
  %39 = load ptr, ptr %11, align 8
  %40 = load i32, ptr @hf_tds_all_headers_total_length, align 4
  %41 = load ptr, ptr %5, align 8
  %42 = load ptr, ptr %6, align 8
  %43 = load i32, ptr %42, align 4
  %44 = call ptr @proto_tree_add_item(ptr noundef %39, i32 noundef %40, ptr noundef %41, i32 noundef %43, i32 noundef 4, i32 noundef -2147483648)
  store ptr %44, ptr %10, align 8
  %45 = load ptr, ptr %6, align 8
  %46 = load i32, ptr %45, align 4
  %47 = load i32, ptr %12, align 4
  %48 = add i32 %46, %47
  store i32 %48, ptr %13, align 4
  %49 = load ptr, ptr %6, align 8
  %50 = load i32, ptr %49, align 4
  %51 = add i32 %50, 4
  store i32 %51, ptr %49, align 4
  br label %52

52:                                               ; preds = %123, %28
  call void @llvm.lifetime.start.p0(i64 8, ptr %15) #11
  store ptr null, ptr %15, align 8
  call void @llvm.lifetime.start.p0(i64 8, ptr %16) #11
  call void @llvm.lifetime.start.p0(i64 8, ptr %17) #11
  store ptr null, ptr %17, align 8
  call void @llvm.lifetime.start.p0(i64 8, ptr %18) #11
  store ptr null, ptr %18, align 8
  call void @llvm.lifetime.start.p0(i64 4, ptr %19) #11
  store i32 0, ptr %19, align 4
  call void @llvm.lifetime.start.p0(i64 2, ptr %20) #11
  %53 = load ptr, ptr %11, align 8
  %54 = load ptr, ptr %5, align 8
  %55 = load ptr, ptr %6, align 8
  %56 = load i32, ptr %55, align 4
  %57 = load i32, ptr %19, align 4
  %58 = load i32, ptr @ett_tds_all_headers_header, align 4
  %59 = call ptr @proto_tree_add_subtree(ptr noundef %53, ptr noundef %54, i32 noundef %56, i32 noundef %57, i32 noundef %58, ptr noundef %16, ptr noundef @.str.1334)
  store ptr %59, ptr %15, align 8
  %60 = load ptr, ptr %15, align 8
  %61 = load i32, ptr @hf_tds_all_headers_header_length, align 4
  %62 = load ptr, ptr %5, align 8
  %63 = load ptr, ptr %6, align 8
  %64 = load i32, ptr %63, align 4
  %65 = call ptr @proto_tree_add_item_ret_uint(ptr noundef %60, i32 noundef %61, ptr noundef %62, i32 noundef %64, i32 noundef 4, i32 noundef -2147483648, ptr noundef %19)
  store ptr %65, ptr %17, align 8
  %66 = load ptr, ptr %16, align 8
  %67 = load i32, ptr %19, align 4
  call void @proto_item_set_len(ptr noundef %66, i32 noundef %67)
  %68 = load i32, ptr %19, align 4
  %69 = icmp eq i32 %68, 0
  br i1 %69, label %70, label %74

70:                                               ; preds = %52
  %71 = load ptr, ptr %7, align 8
  %72 = load ptr, ptr %17, align 8
  %73 = call ptr (ptr, ptr, ptr, ptr, ...) @expert_add_info_format(ptr noundef %71, ptr noundef %72, ptr noundef @ei_tds_invalid_length, ptr noundef @.str.1335)
  store i32 2, ptr %14, align 4
  br label %120

74:                                               ; preds = %52
  %75 = load ptr, ptr %5, align 8
  %76 = load ptr, ptr %6, align 8
  %77 = load i32, ptr %76, align 4
  %78 = add i32 %77, 4
  %79 = call zeroext i16 @tvb_get_letohs(ptr noundef %75, i32 noundef %78)
  store i16 %79, ptr %20, align 2
  %80 = load ptr, ptr %15, align 8
  %81 = load i32, ptr @hf_tds_all_headers_header_type, align 4
  %82 = load ptr, ptr %5, align 8
  %83 = load ptr, ptr %6, align 8
  %84 = load i32, ptr %83, align 4
  %85 = add i32 %84, 4
  %86 = call ptr @proto_tree_add_item(ptr noundef %80, i32 noundef %81, ptr noundef %82, i32 noundef %85, i32 noundef 2, i32 noundef -2147483648)
  store ptr %86, ptr %18, align 8
  %87 = load i16, ptr %20, align 2
  %88 = zext i16 %87 to i32
  switch i32 %88, label %111 [
    i32 1, label %115
    i32 2, label %89
  ]

89:                                               ; preds = %74
  %90 = load i32, ptr %19, align 4
  %91 = icmp ne i32 %90, 18
  br i1 %91, label %92, label %96

92:                                               ; preds = %89
  %93 = load ptr, ptr %7, align 8
  %94 = load ptr, ptr %17, align 8
  %95 = call ptr (ptr, ptr, ptr, ptr, ...) @expert_add_info_format(ptr noundef %93, ptr noundef %94, ptr noundef @ei_tds_invalid_length, ptr noundef @.str.1336)
  br label %96

96:                                               ; preds = %92, %89
  %97 = load ptr, ptr %15, align 8
  %98 = load i32, ptr @hf_tds_all_headers_trans_descr, align 4
  %99 = load ptr, ptr %5, align 8
  %100 = load ptr, ptr %6, align 8
  %101 = load i32, ptr %100, align 4
  %102 = add i32 %101, 6
  %103 = call ptr @proto_tree_add_item(ptr noundef %97, i32 noundef %98, ptr noundef %99, i32 noundef %102, i32 noundef 8, i32 noundef -2147483648)
  %104 = load ptr, ptr %15, align 8
  %105 = load i32, ptr @hf_tds_all_headers_request_cnt, align 4
  %106 = load ptr, ptr %5, align 8
  %107 = load ptr, ptr %6, align 8
  %108 = load i32, ptr %107, align 4
  %109 = add i32 %108, 14
  %110 = call ptr @proto_tree_add_item(ptr noundef %104, i32 noundef %105, ptr noundef %106, i32 noundef %109, i32 noundef 4, i32 noundef -2147483648)
  br label %115

111:                                              ; preds = %74
  %112 = load ptr, ptr %7, align 8
  %113 = load ptr, ptr %18, align 8
  %114 = call ptr @expert_add_info(ptr noundef %112, ptr noundef %113, ptr noundef @ei_tds_all_headers_header_type)
  br label %115

115:                                              ; preds = %111, %96, %74
  %116 = load i32, ptr %19, align 4
  %117 = load ptr, ptr %6, align 8
  %118 = load i32, ptr %117, align 4
  %119 = add i32 %118, %116
  store i32 %119, ptr %117, align 4
  store i32 0, ptr %14, align 4
  br label %120

120:                                              ; preds = %115, %70
  call void @llvm.lifetime.end.p0(i64 2, ptr %20) #11
  call void @llvm.lifetime.end.p0(i64 4, ptr %19) #11
  call void @llvm.lifetime.end.p0(i64 8, ptr %18) #11
  call void @llvm.lifetime.end.p0(i64 8, ptr %17) #11
  call void @llvm.lifetime.end.p0(i64 8, ptr %16) #11
  call void @llvm.lifetime.end.p0(i64 8, ptr %15) #11
  %121 = load i32, ptr %14, align 4
  switch i32 %121, label %148 [
    i32 0, label %122
    i32 2, label %128
  ]

122:                                              ; preds = %120
  br label %123

123:                                              ; preds = %122
  %124 = load ptr, ptr %6, align 8
  %125 = load i32, ptr %124, align 4
  %126 = load i32, ptr %13, align 4
  %127 = icmp slt i32 %125, %126
  br i1 %127, label %52, label %128, !llvm.loop !16

128:                                              ; preds = %123, %120
  %129 = load ptr, ptr %6, align 8
  %130 = load i32, ptr %129, align 4
  %131 = load i32, ptr %13, align 4
  %132 = icmp ne i32 %130, %131
  br i1 %132, label %133, label %144

133:                                              ; preds = %128
  %134 = load ptr, ptr %7, align 8
  %135 = load ptr, ptr %10, align 8
  %136 = load i32, ptr %12, align 4
  %137 = load ptr, ptr %6, align 8
  %138 = load i32, ptr %137, align 4
  %139 = add i32 %136, %138
  %140 = load i32, ptr %13, align 4
  %141 = sub i32 %139, %140
  %142 = load i32, ptr %12, align 4
  %143 = call ptr (ptr, ptr, ptr, ptr, ...) @expert_add_info_format(ptr noundef %134, ptr noundef %135, ptr noundef @ei_tds_invalid_length, ptr noundef @.str.1337, i32 noundef %141, i32 noundef %142)
  store i32 1, ptr %14, align 4
  br label %145

144:                                              ; preds = %128
  store i32 0, ptr %14, align 4
  br label %145

145:                                              ; preds = %144, %133, %27
  call void @llvm.lifetime.end.p0(i64 4, ptr %13) #11
  call void @llvm.lifetime.end.p0(i64 4, ptr %12) #11
  call void @llvm.lifetime.end.p0(i64 8, ptr %11) #11
  call void @llvm.lifetime.end.p0(i64 8, ptr %10) #11
  call void @llvm.lifetime.end.p0(i64 8, ptr %9) #11
  %146 = load i32, ptr %14, align 4
  switch i32 %146, label %148 [
    i32 0, label %147
    i32 1, label %147
  ]

147:                                              ; preds = %145, %145
  ret void

148:                                              ; preds = %145, %120
  unreachable
}