; Function Attrs: null_pointer_is_valid sspstrong uwtable
define internal fastcc void @dissect_tds_all_headers(ptr noundef nonnull %0, ptr noundef captures(none) %1, ptr noundef %2, ptr noundef %3) unnamed_addr #0 {
  %5 = alloca ptr, align 8
  %6 = alloca i32, align 4
  %7 = load i32, ptr %1, align 4
  %8 = tail call i32 @tvb_get_letohl(ptr noundef nonnull %0, i32 noundef %7)
  %9 = icmp ugt i32 %8, 255
  br i1 %9, label %67, label %10

10:                                               ; preds = %4
  %11 = load i32, ptr @hf_tds_all_headers, align 4
  %12 = load i32, ptr %1, align 4
  %13 = tail call ptr @proto_tree_add_item(ptr noundef %3, i32 noundef %11, ptr noundef nonnull %0, i32 noundef %12, i32 noundef %8, i32 noundef 0)
  %14 = load i32, ptr @ett_tds_all_headers, align 4
  %15 = tail call ptr @proto_item_add_subtree(ptr noundef %13, i32 noundef %14)
  %16 = load i32, ptr @hf_tds_all_headers_total_length, align 4
  %17 = load i32, ptr %1, align 4
  %18 = tail call ptr @proto_tree_add_item(ptr noundef %15, i32 noundef %16, ptr noundef nonnull %0, i32 noundef %17, i32 noundef 4, i32 noundef -2147483648)
  %19 = load i32, ptr %1, align 4
  %20 = add i32 %19, %8
  %21 = add i32 %19, 4
  store i32 %21, ptr %1, align 4
  br label %22

22:                                               ; preds = %58, %10
  %23 = phi i32 [ %61, %58 ], [ %21, %10 ]
  call void @llvm.lifetime.start.p0(i64 8, ptr nonnull %5) #13
  call void @llvm.lifetime.start.p0(i64 4, ptr nonnull %6) #13
  store i32 0, ptr %6, align 4
  %24 = load i32, ptr @ett_tds_all_headers_header, align 4
  %25 = call ptr @proto_tree_add_subtree(ptr noundef %15, ptr noundef nonnull %0, i32 noundef %23, i32 noundef 0, i32 noundef %24, ptr noundef nonnull %5, ptr noundef nonnull @.str.1334)
  %26 = load i32, ptr @hf_tds_all_headers_header_length, align 4
  %27 = load i32, ptr %1, align 4
  %28 = call ptr @proto_tree_add_item_ret_uint(ptr noundef %25, i32 noundef %26, ptr noundef nonnull %0, i32 noundef %27, i32 noundef 4, i32 noundef -2147483648, ptr noundef nonnull %6)
  %29 = load ptr, ptr %5, align 8
  %30 = load i32, ptr %6, align 4
  call void @proto_item_set_len(ptr noundef %29, i32 noundef %30)
  %31 = load i32, ptr %6, align 4
  %32 = icmp eq i32 %31, 0
  br i1 %32, label %56, label %33

33:                                               ; preds = %22
  %34 = load i32, ptr %1, align 4
  %35 = add i32 %34, 4
  %36 = call zeroext i16 @tvb_get_letohs(ptr noundef nonnull %0, i32 noundef %35)
  %37 = load i32, ptr @hf_tds_all_headers_header_type, align 4
  %38 = load i32, ptr %1, align 4
  %39 = add i32 %38, 4
  %40 = call ptr @proto_tree_add_item(ptr noundef %25, i32 noundef %37, ptr noundef nonnull %0, i32 noundef %39, i32 noundef 2, i32 noundef -2147483648)
  switch i16 %36, label %54 [
    i16 1, label %58
    i16 2, label %41
  ]

41:                                               ; preds = %33
  %42 = load i32, ptr %6, align 4
  %.not = icmp eq i32 %42, 18
  br i1 %.not, label %45, label %43

43:                                               ; preds = %41
  %44 = call ptr (ptr, ptr, ptr, ptr, ...) @expert_add_info_format(ptr noundef %2, ptr noundef %28, ptr noundef nonnull @ei_tds_invalid_length, ptr noundef nonnull @.str.1336)
  br label %45

45:                                               ; preds = %43, %41
  %46 = load i32, ptr @hf_tds_all_headers_trans_descr, align 4
  %47 = load i32, ptr %1, align 4
  %48 = add i32 %47, 6
  %49 = call ptr @proto_tree_add_item(ptr noundef %25, i32 noundef %46, ptr noundef nonnull %0, i32 noundef %48, i32 noundef 8, i32 noundef -2147483648)
  %50 = load i32, ptr @hf_tds_all_headers_request_cnt, align 4
  %51 = load i32, ptr %1, align 4
  %52 = add i32 %51, 14
  %53 = call ptr @proto_tree_add_item(ptr noundef %25, i32 noundef %50, ptr noundef nonnull %0, i32 noundef %52, i32 noundef 4, i32 noundef -2147483648)
  br label %58

54:                                               ; preds = %33
  %55 = call ptr @expert_add_info(ptr noundef %2, ptr noundef %40, ptr noundef nonnull @ei_tds_all_headers_header_type)
  br label %58

56:                                               ; preds = %22
  %57 = call ptr (ptr, ptr, ptr, ptr, ...) @expert_add_info_format(ptr noundef %2, ptr noundef %28, ptr noundef nonnull @ei_tds_invalid_length, ptr noundef nonnull @.str.1335)
  call void @llvm.lifetime.end.p0(i64 4, ptr nonnull %6) #13
  call void @llvm.lifetime.end.p0(i64 8, ptr nonnull %5) #13
  %.pre = load i32, ptr %1, align 4
  br label %.loopexit

58:                                               ; preds = %33, %45, %54
  %59 = load i32, ptr %6, align 4
  %60 = load i32, ptr %1, align 4
  %61 = add i32 %60, %59
  store i32 %61, ptr %1, align 4
  call void @llvm.lifetime.end.p0(i64 4, ptr nonnull %6) #13
  call void @llvm.lifetime.end.p0(i64 8, ptr nonnull %5) #13
  %62 = icmp slt i32 %61, %20
  br i1 %62, label %22, label %.loopexit, !llvm.loop !30

.loopexit:                                        ; preds = %58, %56
  %63 = phi i32 [ %.pre, %56 ], [ %61, %58 ]
  %.not52 = icmp eq i32 %63, %20
  br i1 %.not52, label %67, label %64

64:                                               ; preds = %.loopexit
  %65 = sub i32 %63, %19
  %66 = call ptr (ptr, ptr, ptr, ptr, ...) @expert_add_info_format(ptr noundef %2, ptr noundef %18, ptr noundef nonnull @ei_tds_invalid_length, ptr noundef nonnull @.str.1337, i32 noundef %65, i32 noundef %8)
  br label %67

67:                                               ; preds = %.loopexit, %4, %64
  ret void
}